; ModuleID = '38/1606.c'
source_filename = "38/1606.c"
target datalayout = "e-m:e-p270:32:32-p271:32:32-p272:64:64-i64:64-f80:128-n8:16:32:64-S128"
target triple = "x86_64-pc-linux-gnu"

@.str = private unnamed_addr constant [3 x i8] c"%d\00", align 1
@.str.1 = private unnamed_addr constant [4 x i8] c"%lf\00", align 1
@.str.2 = private unnamed_addr constant [7 x i8] c"%.5lf\0A\00", align 1

; Function Attrs: noinline nounwind uwtable
define dso_local i32 @main() #0 {
  %1 = alloca i32, align 4
  %2 = alloca [100 x i32], align 16
  %3 = alloca [200 x [1000 x double]], align 16
  %4 = alloca [200 x double], align 16
  %5 = alloca [200 x double], align 16
  %6 = alloca [200 x double], align 16
  %7 = alloca i32, align 4
  %8 = alloca i32, align 4
  %9 = alloca i32, align 4
  store i32 0, i32* %1, align 4
  %10 = bitcast [200 x double]* %4 to i8*
  call void @llvm.memset.p0i8.i64(i8* align 16 %10, i8 0, i64 1600, i1 false)
  %11 = bitcast [200 x double]* %5 to i8*
  call void @llvm.memset.p0i8.i64(i8* align 16 %11, i8 0, i64 1600, i1 false)
  %12 = bitcast [200 x double]* %6 to i8*
  call void @llvm.memset.p0i8.i64(i8* align 16 %12, i8 0, i64 1600, i1 false)
  %13 = call i32 (i8*, ...) @__isoc99_scanf(i8* getelementptr inbounds ([3 x i8], [3 x i8]* @.str, i64 0, i64 0), i32* %7)
  store i32 0, i32* %8, align 4
  br label %14

14:                                               ; preds = %54, %0
  %15 = load i32, i32* %8, align 4
  %16 = load i32, i32* %7, align 4
  %17 = icmp slt i32 %15, %16
  br i1 %17, label %18, label %57

18:                                               ; preds = %14
  %19 = load i32, i32* %8, align 4
  %20 = sext i32 %19 to i64
  %21 = getelementptr inbounds [100 x i32], [100 x i32]* %2, i64 0, i64 %20
  %22 = call i32 (i8*, ...) @__isoc99_scanf(i8* getelementptr inbounds ([3 x i8], [3 x i8]* @.str, i64 0, i64 0), i32* %21)
  store i32 0, i32* %9, align 4
  br label %23

23:                                               ; preds = %50, %18
  %24 = load i32, i32* %9, align 4
  %25 = load i32, i32* %8, align 4
  %26 = sext i32 %25 to i64
  %27 = getelementptr inbounds [100 x i32], [100 x i32]* %2, i64 0, i64 %26
  %28 = load i32, i32* %27, align 4
  %29 = icmp slt i32 %24, %28
  br i1 %29, label %30, label %53

30:                                               ; preds = %23
  %31 = load i32, i32* %8, align 4
  %32 = sext i32 %31 to i64
  %33 = getelementptr inbounds [200 x [1000 x double]], [200 x [1000 x double]]* %3, i64 0, i64 %32
  %34 = load i32, i32* %9, align 4
  %35 = sext i32 %34 to i64
  %36 = getelementptr inbounds [1000 x double], [1000 x double]* %33, i64 0, i64 %35
  %37 = call i32 (i8*, ...) @__isoc99_scanf(i8* getelementptr inbounds ([4 x i8], [4 x i8]* @.str.1, i64 0, i64 0), double* %36)
  %38 = load i32, i32* %8, align 4
  %39 = sext i32 %38 to i64
  %40 = getelementptr inbounds [200 x [1000 x double]], [200 x [1000 x double]]* %3, i64 0, i64 %39
  %41 = load i32, i32* %9, align 4
  %42 = sext i32 %41 to i64
  %43 = getelementptr inbounds [1000 x double], [1000 x double]* %40, i64 0, i64 %42
  %44 = load double, double* %43, align 8
  %45 = load i32, i32* %8, align 4
  %46 = sext i32 %45 to i64
  %47 = getelementptr inbounds [200 x double], [200 x double]* %6, i64 0, i64 %46
  %48 = load double, double* %47, align 8
  %49 = fadd double %48, %44
  store double %49, double* %47, align 8
  br label %50

50:                                               ; preds = %30
  %51 = load i32, i32* %9, align 4
  %52 = add nsw i32 %51, 1
  store i32 %52, i32* %9, align 4
  br label %23

53:                                               ; preds = %23
  br label %54

54:                                               ; preds = %53
  %55 = load i32, i32* %8, align 4
  %56 = add nsw i32 %55, 1
  store i32 %56, i32* %8, align 4
  br label %14

57:                                               ; preds = %14
  store i32 0, i32* %8, align 4
  br label %58

58:                                               ; preds = %117, %57
  %59 = load i32, i32* %8, align 4
  %60 = load i32, i32* %7, align 4
  %61 = icmp slt i32 %59, %60
  br i1 %61, label %62, label %120

62:                                               ; preds = %58
  store i32 0, i32* %9, align 4
  br label %63

63:                                               ; preds = %113, %62
  %64 = load i32, i32* %9, align 4
  %65 = load i32, i32* %8, align 4
  %66 = sext i32 %65 to i64
  %67 = getelementptr inbounds [100 x i32], [100 x i32]* %2, i64 0, i64 %66
  %68 = load i32, i32* %67, align 4
  %69 = icmp slt i32 %64, %68
  br i1 %69, label %70, label %116

70:                                               ; preds = %63
  %71 = load i32, i32* %8, align 4
  %72 = sext i32 %71 to i64
  %73 = getelementptr inbounds [200 x [1000 x double]], [200 x [1000 x double]]* %3, i64 0, i64 %72
  %74 = load i32, i32* %9, align 4
  %75 = sext i32 %74 to i64
  %76 = getelementptr inbounds [1000 x double], [1000 x double]* %73, i64 0, i64 %75
  %77 = load double, double* %76, align 8
  %78 = load i32, i32* %8, align 4
  %79 = sext i32 %78 to i64
  %80 = getelementptr inbounds [200 x double], [200 x double]* %6, i64 0, i64 %79
  %81 = load double, double* %80, align 8
  %82 = load i32, i32* %8, align 4
  %83 = sext i32 %82 to i64
  %84 = getelementptr inbounds [100 x i32], [100 x i32]* %2, i64 0, i64 %83
  %85 = load i32, i32* %84, align 4
  %86 = sitofp i32 %85 to double
  %87 = fdiv double %81, %86
  %88 = fsub double %77, %87
  %89 = load i32, i32* %8, align 4
  %90 = sext i32 %89 to i64
  %91 = getelementptr inbounds [200 x [1000 x double]], [200 x [1000 x double]]* %3, i64 0, i64 %90
  %92 = load i32, i32* %9, align 4
  %93 = sext i32 %92 to i64
  %94 = getelementptr inbounds [1000 x double], [1000 x double]* %91, i64 0, i64 %93
  %95 = load double, double* %94, align 8
  %96 = load i32, i32* %8, align 4
  %97 = sext i32 %96 to i64
  %98 = getelementptr inbounds [200 x double], [200 x double]* %6, i64 0, i64 %97
  %99 = load double, double* %98, align 8
  %100 = load i32, i32* %8, align 4
  %101 = sext i32 %100 to i64
  %102 = getelementptr inbounds [100 x i32], [100 x i32]* %2, i64 0, i64 %101
  %103 = load i32, i32* %102, align 4
  %104 = sitofp i32 %103 to double
  %105 = fdiv double %99, %104
  %106 = fsub double %95, %105
  %107 = fmul double %88, %106
  %108 = load i32, i32* %8, align 4
  %109 = sext i32 %108 to i64
  %110 = getelementptr inbounds [200 x double], [200 x double]* %4, i64 0, i64 %109
  %111 = load double, double* %110, align 8
  %112 = fadd double %111, %107
  store double %112, double* %110, align 8
  br label %113

113:                                              ; preds = %70
  %114 = load i32, i32* %9, align 4
  %115 = add nsw i32 %114, 1
  store i32 %115, i32* %9, align 4
  br label %63

116:                                              ; preds = %63
  br label %117

117:                                              ; preds = %116
  %118 = load i32, i32* %8, align 4
  %119 = add nsw i32 %118, 1
  store i32 %119, i32* %8, align 4
  br label %58

120:                                              ; preds = %58
  store i32 0, i32* %8, align 4
  br label %121

121:                                              ; preds = %145, %120
  %122 = load i32, i32* %8, align 4
  %123 = load i32, i32* %7, align 4
  %124 = icmp slt i32 %122, %123
  br i1 %124, label %125, label %148

125:                                              ; preds = %121
  %126 = load i32, i32* %8, align 4
  %127 = sext i32 %126 to i64
  %128 = getelementptr inbounds [200 x double], [200 x double]* %4, i64 0, i64 %127
  %129 = load double, double* %128, align 8
  %130 = load i32, i32* %8, align 4
  %131 = sext i32 %130 to i64
  %132 = getelementptr inbounds [100 x i32], [100 x i32]* %2, i64 0, i64 %131
  %133 = load i32, i32* %132, align 4
  %134 = sitofp i32 %133 to double
  %135 = fdiv double %129, %134
  %136 = call double @sqrt(double %135) #4
  %137 = load i32, i32* %8, align 4
  %138 = sext i32 %137 to i64
  %139 = getelementptr inbounds [200 x double], [200 x double]* %5, i64 0, i64 %138
  store double %136, double* %139, align 8
  %140 = load i32, i32* %8, align 4
  %141 = sext i32 %140 to i64
  %142 = getelementptr inbounds [200 x double], [200 x double]* %5, i64 0, i64 %141
  %143 = load double, double* %142, align 8
  %144 = call i32 (i8*, ...) @printf(i8* getelementptr inbounds ([7 x i8], [7 x i8]* @.str.2, i64 0, i64 0), double %143)
  br label %145

145:                                              ; preds = %125
  %146 = load i32, i32* %8, align 4
  %147 = add nsw i32 %146, 1
  store i32 %147, i32* %8, align 4
  br label %121

148:                                              ; preds = %121
  ret i32 0
}

; Function Attrs: argmemonly nounwind willreturn
declare void @llvm.memset.p0i8.i64(i8* nocapture writeonly, i8, i64, i1 immarg) #1

declare dso_local i32 @__isoc99_scanf(i8*, ...) #2

; Function Attrs: nounwind
declare dso_local double @sqrt(double) #3

declare dso_local i32 @printf(i8*, ...) #2


!llvm.module.flags = !{!0}
!llvm.ident = !{!1}

!0 = !{i32 1, !"wchar_size", i32 4}
!1 = !{!"clang version 10.0.0-4ubuntu1 "}
